; Function Attrs: nounwind uwtable
define internal i32 @test_cmp_build_cert_chain_no_certs() #0 {
  %1 = tail call fastcc ptr @set_up(ptr noundef nonnull @.str.59)
  %2 = icmp eq ptr %1, null
  br i1 %2, label %42, label %3

3:                                                ; preds = %0
  %4 = getelementptr inbounds nuw i8, ptr %1, i64 88
  store i32 0, ptr %4, align 8, !tbaa !43
  %5 = getelementptr inbounds nuw i8, ptr %1, i64 80
  store i32 0, ptr %5, align 8, !tbaa !44
  %6 = load ptr, ptr @endentity2, align 8, !tbaa !11
  %7 = getelementptr inbounds nuw i8, ptr %1, i64 56
  store ptr %6, ptr %7, align 8, !tbaa !45
  %8 = tail call ptr @OPENSSL_sk_new_null() #5
  %9 = getelementptr inbounds nuw i8, ptr %1, i64 64
  store ptr %8, ptr %9, align 8, !tbaa !39
  %10 = tail call i32 @test_ptr(ptr noundef nonnull @.str.14, i32 noundef 458, ptr noundef nonnull @.str.88, ptr noundef %8) #5
  %.not = icmp eq i32 %10, 0
  br i1 %.not, label %.thread, label %11

11:                                               ; preds = %3
  %12 = tail call ptr @OPENSSL_sk_new_null() #5
  %13 = getelementptr inbounds nuw i8, ptr %1, i64 72
  store ptr %12, ptr %13, align 8, !tbaa !40
  %14 = tail call i32 @test_ptr(ptr noundef nonnull @.str.14, i32 noundef 459, ptr noundef nonnull @.str.89, ptr noundef %12) #5
  %.not15 = icmp eq i32 %14, 0
  br i1 %.not15, label %.thread, label %15

15:                                               ; preds = %11
  %16 = load ptr, ptr %13, align 8, !tbaa !40
  %17 = load ptr, ptr @endentity2, align 8, !tbaa !11
  %18 = tail call i32 @OPENSSL_sk_push(ptr noundef %16, ptr noundef %17) #5
  %19 = icmp ne i32 %18, 0
  %20 = zext i1 %19 to i32
  %21 = tail call i32 @test_true(ptr noundef nonnull @.str.14, i32 noundef 460, ptr noundef nonnull @.str.93, i32 noundef %20) #5
  %.not16 = icmp eq i32 %21, 0
  br i1 %.not16, label %.thread, label %tear_down.exit19

.thread:                                          ; preds = %3, %11, %15
  %22 = getelementptr inbounds nuw i8, ptr %1, i64 8
  %23 = load ptr, ptr %22, align 8, !tbaa !36
  tail call void @OSSL_CMP_CTX_free(ptr noundef %23) #5
  %24 = getelementptr inbounds nuw i8, ptr %1, i64 16
  %25 = load ptr, ptr %24, align 8, !tbaa !19
  tail call void @OSSL_CMP_MSG_free(ptr noundef %25) #5
  %26 = getelementptr inbounds nuw i8, ptr %1, i64 24
  %27 = load ptr, ptr %26, align 8, !tbaa !37
  tail call void @OSSL_CMP_PKISI_free(ptr noundef %27) #5
  %28 = getelementptr inbounds nuw i8, ptr %1, i64 40
  %29 = load ptr, ptr %28, align 8, !tbaa !38
  tail call void @CRYPTO_free(ptr noundef %29, ptr noundef nonnull @.str.14, i32 noundef 46) #5
  %30 = load ptr, ptr %9, align 8, !tbaa !39
  tail call void @OPENSSL_sk_free(ptr noundef %30) #5
  %31 = getelementptr inbounds nuw i8, ptr %1, i64 72
  br label %.sink.split

tear_down.exit19:                                 ; preds = %15
  %32 = tail call fastcc i32 @execute_cmp_build_cert_chain_test(ptr noundef %1)
  %33 = getelementptr inbounds nuw i8, ptr %1, i64 8
  %34 = load ptr, ptr %33, align 8, !tbaa !36
  tail call void @OSSL_CMP_CTX_free(ptr noundef %34) #5
  %35 = getelementptr inbounds nuw i8, ptr %1, i64 16
  %36 = load ptr, ptr %35, align 8, !tbaa !19
  tail call void @OSSL_CMP_MSG_free(ptr noundef %36) #5
  %37 = getelementptr inbounds nuw i8, ptr %1, i64 24
  %38 = load ptr, ptr %37, align 8, !tbaa !37
  tail call void @OSSL_CMP_PKISI_free(ptr noundef %38) #5
  %39 = getelementptr inbounds nuw i8, ptr %1, i64 40
  %40 = load ptr, ptr %39, align 8, !tbaa !38
  tail call void @CRYPTO_free(ptr noundef %40, ptr noundef nonnull @.str.14, i32 noundef 46) #5
  %41 = load ptr, ptr %9, align 8, !tbaa !39
  tail call void @OPENSSL_sk_free(ptr noundef %41) #5
  br label %.sink.split

.sink.split:                                      ; preds = %tear_down.exit19, %.thread
  %.sink.in = phi ptr [ %31, %.thread ], [ %13, %tear_down.exit19 ]
  %.013.ph = phi i32 [ 0, %.thread ], [ %32, %tear_down.exit19 ]
  %.sink = load ptr, ptr %.sink.in, align 8, !tbaa !40
  tail call void @OPENSSL_sk_free(ptr noundef %.sink) #5
  tail call void @CRYPTO_free(ptr noundef nonnull %1, ptr noundef nonnull @.str.14, i32 noundef 50) #5
  br label %42

42:                                               ; preds = %.sink.split, %0
  %.013 = phi i32 [ 0, %0 ], [ %.013.ph, %.sink.split ]
  ret i32 %.013
}